; Function Attrs: mustprogress nofree norecurse nounwind willreturn uwtable
define void @_ZN5arrow16CPUMemoryManager14ViewBufferFromERKSt10shared_ptrINS_6BufferEERKS1_INS_13MemoryManagerEE(ptr noalias nocapture writeonly sret(%"class.arrow::Result.7") align 8 %agg.result, ptr nocapture nonnull readnone align 8 %this, ptr nocapture noundef nonnull readonly align 8 dereferenceable(16) %buf, ptr nocapture noundef nonnull readonly align 8 dereferenceable(16) %from) unnamed_addr #10 align 2 personality ptr @__gxx_personality_v0 {
entry:
  %0 = load ptr, ptr %from, align 8
  %device_.i = getelementptr inbounds i8, ptr %0, i64 24
  %1 = load ptr, ptr %device_.i, align 8
  %is_cpu_.i.i = getelementptr inbounds i8, ptr %1, i64 24
  %2 = load i8, ptr %is_cpu_.i.i, align 8
  %3 = and i8 %2, 1
  %tobool.i.i.not = icmp eq i8 %3, 0
  br i1 %tobool.i.i.not, label %if.then, label %if.end

if.then:                                          ; preds = %entry
  tail call void @llvm.memset.p0.i64(ptr noundef nonnull align 8 dereferenceable(24) %agg.result, i8 0, i64 24, i1 false)
  br label %return

if.end:                                           ; preds = %entry
  store ptr null, ptr %agg.result, align 8
  %storage_.i.i = getelementptr inbounds i8, ptr %agg.result, i64 8
  %4 = load <2 x ptr>, ptr %buf, align 8
  store <2 x ptr> %4, ptr %storage_.i.i, align 8
  %5 = extractelement <2 x ptr> %4, i64 1
  %cmp.not.i.i.i.i.i.i = icmp eq ptr %5, null
  br i1 %cmp.not.i.i.i.i.i.i, label %return, label %if.then.i.i.i.i.i.i

if.then.i.i.i.i.i.i:                              ; preds = %if.end
  %_M_use_count.i.i.i.i.i.i.i = getelementptr inbounds i8, ptr %5, i64 8
  %6 = load i8, ptr @__libc_single_threaded, align 1
  %tobool.i.i.not.i.i.i.i.i.i.i = icmp eq i8 %6, 0
  br i1 %tobool.i.i.not.i.i.i.i.i.i.i, label %if.else.i.i.i.i.i.i.i.i, label %if.then.i.i.i.i.i.i.i.i

if.then.i.i.i.i.i.i.i.i:                          ; preds = %if.then.i.i.i.i.i.i
  %7 = load i32, ptr %_M_use_count.i.i.i.i.i.i.i, align 4
  %add.i.i.i.i.i.i.i.i = add nsw i32 %7, 1
  store i32 %add.i.i.i.i.i.i.i.i, ptr %_M_use_count.i.i.i.i.i.i.i, align 4
  br label %return

if.else.i.i.i.i.i.i.i.i:                          ; preds = %if.then.i.i.i.i.i.i
  %8 = atomicrmw volatile add ptr %_M_use_count.i.i.i.i.i.i.i, i32 1 acq_rel, align 4
  br label %return

return:                                           ; preds = %if.else.i.i.i.i.i.i.i.i, %if.then.i.i.i.i.i.i.i.i, %if.end, %if.then
  ret void
}